target datalayout = "e-m:e-p270:32:32-p271:32:32-p272:64:64-i64:64-i128:128-f80:128-n8:16:32:64-S128"
target triple = "x86_64-pc-linux-gnu"

%struct.Abc_Aig_t_ = type { ptr, ptr, ptr, i32, i32, ptr, ptr, ptr, ptr, ptr, ptr, ptr, i32, i32, i32, i32 }
%struct.Abc_Obj_t_ = type { ptr, ptr, i32, i32, %struct.Vec_Int_t_, %struct.Vec_Int_t_, %union.anon, %union.anon.0 }
%struct.Vec_Int_t_ = type { i32, i32, ptr }
%union.anon = type { ptr }
%union.anon.0 = type { ptr }
%struct.Abc_Ntk_t_ = type { i32, i32, ptr, ptr, ptr, ptr, ptr, ptr, ptr, ptr, ptr, ptr, ptr, [11 x i32], i32, i32, i32, i32, ptr, i32, ptr, ptr, i32, i32, i32, double, i32, %struct.Vec_Int_t_, ptr, ptr, ptr, ptr, ptr, float, i32, ptr, ptr, ptr, ptr, ptr, ptr, ptr, ptr, ptr, ptr, ptr, ptr, ptr, ptr, ptr, ptr, ptr, ptr, ptr, ptr, ptr }
%struct.Vec_Ptr_t_ = type { i32, i32, ptr }

; Function Attrs: nounwind uwtable
define internal i32 @Abc_ObjFaninC1(ptr noundef %0) #0 {
  %2 = alloca ptr, align 8
  store ptr %0, ptr %2, align 8
  %3 = load ptr, ptr %2, align 8
  %4 = getelementptr inbounds %struct.Abc_Obj_t_, ptr %3, i32 0, i32 3
  %5 = load i32, ptr %4, align 4
  %6 = lshr i32 %5, 11
  %7 = and i32 %6, 1
  ret i32 %7
}

; Function Attrs: nounwind uwtable
define internal ptr @Abc_ObjFanin1(ptr noundef %0) #0 {
  %2 = alloca ptr, align 8
  store ptr %0, ptr %2, align 8
  %3 = load ptr, ptr %2, align 8
  %4 = getelementptr inbounds %struct.Abc_Obj_t_, ptr %3, i32 0, i32 0
  %5 = load ptr, ptr %4, align 8
  %6 = getelementptr inbounds %struct.Abc_Ntk_t_, ptr %5, i32 0, i32 5
  %7 = load ptr, ptr %6, align 8
  %8 = getelementptr inbounds %struct.Vec_Ptr_t_, ptr %7, i32 0, i32 2
  %9 = load ptr, ptr %8, align 8
  %10 = load ptr, ptr %2, align 8
  %11 = getelementptr inbounds %struct.Abc_Obj_t_, ptr %10, i32 0, i32 4
  %12 = getelementptr inbounds %struct.Vec_Int_t_, ptr %11, i32 0, i32 2
  %13 = load ptr, ptr %12, align 8
  %14 = getelementptr inbounds i32, ptr %13, i64 1
  %15 = load i32, ptr %14, align 4
  %16 = sext i32 %15 to i64
  %17 = getelementptr inbounds ptr, ptr %9, i64 %16
  %18 = load ptr, ptr %17, align 8
  ret ptr %18
}

; Function Attrs: nounwind uwtable
define internal ptr @Abc_ObjNotCond(ptr noundef %0, i32 noundef %1) #0 {
  %3 = alloca ptr, align 8
  %4 = alloca i32, align 4
  store ptr %0, ptr %3, align 8
  store i32 %1, ptr %4, align 4
  %5 = load ptr, ptr %3, align 8
  %6 = ptrtoint ptr %5 to i64
  %7 = load i32, ptr %4, align 4
  %8 = icmp ne i32 %7, 0
  %9 = zext i1 %8 to i32
  %10 = sext i32 %9 to i64
  %11 = xor i64 %6, %10
  %12 = inttoptr i64 %11 to ptr
  ret ptr %12
}

; Function Attrs: nounwind uwtable
define internal i32 @Abc_ObjFaninC0(ptr noundef %0) #0 {
  %2 = alloca ptr, align 8
  store ptr %0, ptr %2, align 8
  %3 = load ptr, ptr %2, align 8
  %4 = getelementptr inbounds %struct.Abc_Obj_t_, ptr %3, i32 0, i32 3
  %5 = load i32, ptr %4, align 4
  %6 = lshr i32 %5, 10
  %7 = and i32 %6, 1
  ret i32 %7
}

; Function Attrs: nounwind uwtable
define internal ptr @Abc_ObjFanin0(ptr noundef %0) #0 {
  %2 = alloca ptr, align 8
  store ptr %0, ptr %2, align 8
  %3 = load ptr, ptr %2, align 8
  %4 = getelementptr inbounds %struct.Abc_Obj_t_, ptr %3, i32 0, i32 0
  %5 = load ptr, ptr %4, align 8
  %6 = getelementptr inbounds %struct.Abc_Ntk_t_, ptr %5, i32 0, i32 5
  %7 = load ptr, ptr %6, align 8
  %8 = getelementptr inbounds %struct.Vec_Ptr_t_, ptr %7, i32 0, i32 2
  %9 = load ptr, ptr %8, align 8
  %10 = load ptr, ptr %2, align 8
  %11 = getelementptr inbounds %struct.Abc_Obj_t_, ptr %10, i32 0, i32 4
  %12 = getelementptr inbounds %struct.Vec_Int_t_, ptr %11, i32 0, i32 2
  %13 = load ptr, ptr %12, align 8
  %14 = getelementptr inbounds i32, ptr %13, i64 0
  %15 = load i32, ptr %14, align 4
  %16 = sext i32 %15 to i64
  %17 = getelementptr inbounds ptr, ptr %9, i64 %16
  %18 = load ptr, ptr %17, align 8
  ret ptr %18
}

; Function Attrs: nounwind uwtable
define internal i32 @Abc_ObjIsComplement(ptr noundef %0) #0 {
  %2 = alloca ptr, align 8
  store ptr %0, ptr %2, align 8
  %3 = load ptr, ptr %2, align 8
  %4 = ptrtoint ptr %3 to i64
  %5 = and i64 %4, 1
  %6 = trunc i64 %5 to i32
  ret i32 %6
}

; Function Attrs: nounwind uwtable
define internal ptr @Abc_ObjChild1(ptr noundef %0) #0 {
  %2 = alloca ptr, align 8
  store ptr %0, ptr %2, align 8
  %3 = load ptr, ptr %2, align 8
  %4 = call ptr @Abc_ObjFanin1(ptr noundef %3)
  %5 = load ptr, ptr %2, align 8
  %6 = call i32 @Abc_ObjFaninC1(ptr noundef %5)
  %7 = call ptr @Abc_ObjNotCond(ptr noundef %4, i32 noundef %6)
  ret ptr %7
}

; Function Attrs: nounwind uwtable
define internal ptr @Abc_ObjChild0(ptr noundef %0) #0 {
  %2 = alloca ptr, align 8
  store ptr %0, ptr %2, align 8
  %3 = load ptr, ptr %2, align 8
  %4 = call ptr @Abc_ObjFanin0(ptr noundef %3)
  %5 = load ptr, ptr %2, align 8
  %6 = call i32 @Abc_ObjFaninC0(ptr noundef %5)
  %7 = call ptr @Abc_ObjNotCond(ptr noundef %4, i32 noundef %6)
  ret ptr %7
}

; Function Attrs: nounwind uwtable
define internal i32 @Abc_HashKey2(ptr noundef %0, ptr noundef %1, i32 noundef %2) #0 {
  %4 = alloca ptr, align 8
  %5 = alloca ptr, align 8
  %6 = alloca i32, align 4
  %7 = alloca i32, align 4
  store ptr %0, ptr %4, align 8
  store ptr %1, ptr %5, align 8
  store i32 %2, ptr %6, align 4
  store i32 0, ptr %7, align 4
  %8 = load ptr, ptr %4, align 8
  %9 = call ptr @Abc_ObjRegular(ptr noundef %8)
  %10 = getelementptr inbounds %struct.Abc_Obj_t_, ptr %9, i32 0, i32 2
  %11 = load i32, ptr %10, align 8
  %12 = mul nsw i32 %11, 7937
  %13 = load i32, ptr %7, align 4
  %14 = xor i32 %13, %12
  store i32 %14, ptr %7, align 4
  %15 = load ptr, ptr %5, align 8
  %16 = call ptr @Abc_ObjRegular(ptr noundef %15)
  %17 = getelementptr inbounds %struct.Abc_Obj_t_, ptr %16, i32 0, i32 2
  %18 = load i32, ptr %17, align 8
  %19 = mul nsw i32 %18, 2971
  %20 = load i32, ptr %7, align 4
  %21 = xor i32 %20, %19
  store i32 %21, ptr %7, align 4
  %22 = load ptr, ptr %4, align 8
  %23 = call i32 @Abc_ObjIsComplement(ptr noundef %22)
  %24 = mul nsw i32 %23, 911
  %25 = load i32, ptr %7, align 4
  %26 = xor i32 %25, %24
  store i32 %26, ptr %7, align 4
  %27 = load ptr, ptr %5, align 8
  %28 = call i32 @Abc_ObjIsComplement(ptr noundef %27)
  %29 = mul nsw i32 %28, 353
  %30 = load i32, ptr %7, align 4
  %31 = xor i32 %30, %29
  store i32 %31, ptr %7, align 4
  %32 = load i32, ptr %7, align 4
  %33 = load i32, ptr %6, align 4
  %34 = urem i32 %32, %33
  ret i32 %34
}

; Function Attrs: nounwind uwtable
define internal i32 @Abc_ObjFanoutNum(ptr noundef %0) #0 {
  %2 = alloca ptr, align 8
  store ptr %0, ptr %2, align 8
  %3 = load ptr, ptr %2, align 8
  %4 = getelementptr inbounds %struct.Abc_Obj_t_, ptr %3, i32 0, i32 5
  %5 = getelementptr inbounds %struct.Vec_Int_t_, ptr %4, i32 0, i32 1
  %6 = load i32, ptr %5, align 4
  ret i32 %6
}

; Function Attrs: nounwind uwtable
define internal ptr @Abc_ObjRegular(ptr noundef %0) #0 {
  %2 = alloca ptr, align 8
  store ptr %0, ptr %2, align 8
  %3 = load ptr, ptr %2, align 8
  %4 = ptrtoint ptr %3 to i64
  %5 = and i64 %4, -2
  %6 = inttoptr i64 %5 to ptr
  ret ptr %6
}

; Function Attrs: nounwind uwtable
define internal ptr @Abc_ObjNot(ptr noundef %0) #0 {
  %2 = alloca ptr, align 8
  store ptr %0, ptr %2, align 8
  %3 = load ptr, ptr %2, align 8
  %4 = ptrtoint ptr %3 to i64
  %5 = xor i64 %4, 1
  %6 = inttoptr i64 %5 to ptr
  ret ptr %6
}

; Function Attrs: nounwind uwtable
define ptr @Abc_AigConst1(ptr noundef %0) #0 {
  %2 = alloca ptr, align 8
  store ptr %0, ptr %2, align 8
  %3 = load ptr, ptr %2, align 8
  %4 = getelementptr inbounds %struct.Abc_Ntk_t_, ptr %3, i32 0, i32 30
  %5 = load ptr, ptr %4, align 8
  %6 = getelementptr inbounds %struct.Abc_Aig_t_, ptr %5, i32 0, i32 1
  %7 = load ptr, ptr %6, align 8
  ret ptr %7
}

; Function Attrs: nounwind uwtable
define ptr @Abc_AigAndLookup(ptr noundef %0, ptr noundef %1, ptr noundef %2) #0 {
  %4 = alloca ptr, align 8
  %5 = alloca ptr, align 8
  %6 = alloca ptr, align 8
  %7 = alloca ptr, align 8
  %8 = alloca ptr, align 8
  %9 = alloca ptr, align 8
  %10 = alloca i32, align 4
  %11 = alloca i32, align 4
  %12 = alloca i32, align 4
  store ptr %0, ptr %5, align 8
  store ptr %1, ptr %6, align 8
  store ptr %2, ptr %7, align 8
  %13 = load ptr, ptr %5, align 8
  %14 = getelementptr inbounds %struct.Abc_Aig_t_, ptr %13, i32 0, i32 0
  %15 = load ptr, ptr %14, align 8
  %16 = call ptr @Abc_AigConst1(ptr noundef %15)
  store ptr %16, ptr %9, align 8
  %17 = load ptr, ptr %6, align 8
  %18 = load ptr, ptr %7, align 8
  %19 = icmp eq ptr %17, %18
  br i1 %19, label %20, label %22

20:                                               ; preds = %3
  %21 = load ptr, ptr %6, align 8
  store ptr %21, ptr %4, align 8
  br label %120

22:                                               ; preds = %3
  %23 = load ptr, ptr %6, align 8
  %24 = load ptr, ptr %7, align 8
  %25 = call ptr @Abc_ObjNot(ptr noundef %24)
  %26 = icmp eq ptr %23, %25
  br i1 %26, label %27, label %30

27:                                               ; preds = %22
  %28 = load ptr, ptr %9, align 8
  %29 = call ptr @Abc_ObjNot(ptr noundef %28)
  store ptr %29, ptr %4, align 8
  br label %120

30:                                               ; preds = %22
  %31 = load ptr, ptr %6, align 8
  %32 = call ptr @Abc_ObjRegular(ptr noundef %31)
  %33 = load ptr, ptr %9, align 8
  %34 = icmp eq ptr %32, %33
  br i1 %34, label %35, label %44

35:                                               ; preds = %30
  %36 = load ptr, ptr %6, align 8
  %37 = load ptr, ptr %9, align 8
  %38 = icmp eq ptr %36, %37
  br i1 %38, label %39, label %41

39:                                               ; preds = %35
  %40 = load ptr, ptr %7, align 8
  store ptr %40, ptr %4, align 8
  br label %120

41:                                               ; preds = %35
  %42 = load ptr, ptr %9, align 8
  %43 = call ptr @Abc_ObjNot(ptr noundef %42)
  store ptr %43, ptr %4, align 8
  br label %120

44:                                               ; preds = %30
  %45 = load ptr, ptr %7, align 8
  %46 = call ptr @Abc_ObjRegular(ptr noundef %45)
  %47 = load ptr, ptr %9, align 8
  %48 = icmp eq ptr %46, %47
  br i1 %48, label %49, label %58

49:                                               ; preds = %44
  %50 = load ptr, ptr %7, align 8
  %51 = load ptr, ptr %9, align 8
  %52 = icmp eq ptr %50, %51
  br i1 %52, label %53, label %55

53:                                               ; preds = %49
  %54 = load ptr, ptr %6, align 8
  store ptr %54, ptr %4, align 8
  br label %120

55:                                               ; preds = %49
  %56 = load ptr, ptr %9, align 8
  %57 = call ptr @Abc_ObjNot(ptr noundef %56)
  store ptr %57, ptr %4, align 8
  br label %120

58:                                               ; preds = %44
  %59 = load ptr, ptr %6, align 8
  %60 = call ptr @Abc_ObjRegular(ptr noundef %59)
  %61 = call i32 @Abc_ObjFanoutNum(ptr noundef %60)
  store i32 %61, ptr %11, align 4
  %62 = load ptr, ptr %7, align 8
  %63 = call ptr @Abc_ObjRegular(ptr noundef %62)
  %64 = call i32 @Abc_ObjFanoutNum(ptr noundef %63)
  store i32 %64, ptr %12, align 4
  %65 = load i32, ptr %11, align 4
  %66 = icmp eq i32 %65, 0
  br i1 %66, label %70, label %67

67:                                               ; preds = %58
  %68 = load i32, ptr %12, align 4
  %69 = icmp eq i32 %68, 0
  br i1 %69, label %70, label %71

70:                                               ; preds = %67, %58
  store ptr null, ptr %4, align 8
  br label %120

71:                                               ; preds = %67
  %72 = load ptr, ptr %6, align 8
  %73 = call ptr @Abc_ObjRegular(ptr noundef %72)
  %74 = getelementptr inbounds %struct.Abc_Obj_t_, ptr %73, i32 0, i32 2
  %75 = load i32, ptr %74, align 8
  %76 = load ptr, ptr %7, align 8
  %77 = call ptr @Abc_ObjRegular(ptr noundef %76)
  %78 = getelementptr inbounds %struct.Abc_Obj_t_, ptr %77, i32 0, i32 2
  %79 = load i32, ptr %78, align 8
  %80 = icmp sgt i32 %75, %79
  br i1 %80, label %81, label %85

81:                                               ; preds = %71
  %82 = load ptr, ptr %6, align 8
  store ptr %82, ptr %8, align 8
  %83 = load ptr, ptr %7, align 8
  store ptr %83, ptr %6, align 8
  %84 = load ptr, ptr %8, align 8
  store ptr %84, ptr %7, align 8
  br label %85

85:                                               ; preds = %81, %71
  %86 = load ptr, ptr %6, align 8
  %87 = load ptr, ptr %7, align 8
  %88 = load ptr, ptr %5, align 8
  %89 = getelementptr inbounds %struct.Abc_Aig_t_, ptr %88, i32 0, i32 3
  %90 = load i32, ptr %89, align 8
  %91 = call i32 @Abc_HashKey2(ptr noundef %86, ptr noundef %87, i32 noundef %90)
  store i32 %91, ptr %10, align 4
  %92 = load ptr, ptr %5, align 8
  %93 = getelementptr inbounds %struct.Abc_Aig_t_, ptr %92, i32 0, i32 2
  %94 = load ptr, ptr %93, align 8
  %95 = load i32, ptr %10, align 4
  %96 = zext i32 %95 to i64
  %97 = getelementptr inbounds ptr, ptr %94, i64 %96
  %98 = load ptr, ptr %97, align 8
  store ptr %98, ptr %8, align 8
  br label %99

99:                                               ; preds = %115, %85
  %100 = load ptr, ptr %8, align 8
  %101 = icmp ne ptr %100, null
  br i1 %101, label %102, label %119

102:                                              ; preds = %99
  %103 = load ptr, ptr %6, align 8
  %104 = load ptr, ptr %8, align 8
  %105 = call ptr @Abc_ObjChild0(ptr noundef %104)
  %106 = icmp eq ptr %103, %105
  br i1 %106, label %107, label %114

107:                                              ; preds = %102
  %108 = load ptr, ptr %7, align 8
  %109 = load ptr, ptr %8, align 8
  %110 = call ptr @Abc_ObjChild1(ptr noundef %109)
  %111 = icmp eq ptr %108, %110
  br i1 %111, label %112, label %114

112:                                              ; preds = %107
  %113 = load ptr, ptr %8, align 8
  store ptr %113, ptr %4, align 8
  br label %120

114:                                              ; preds = %107, %102
  br label %115

115:                                              ; preds = %114
  %116 = load ptr, ptr %8, align 8
  %117 = getelementptr inbounds %struct.Abc_Obj_t_, ptr %116, i32 0, i32 1
  %118 = load ptr, ptr %117, align 8
  store ptr %118, ptr %8, align 8
  br label %99, !llvm.loop !19

119:                                              ; preds = %99
  store ptr null, ptr %4, align 8
  br label %120

120:                                              ; preds = %119, %112, %70, %55, %53, %41, %39, %27, %20
  %121 = load ptr, ptr %4, align 8
  ret ptr %121
}