; Function Attrs: nofree norecurse nosync nounwind memory(read, inaccessiblemem: none) uwtable
define ptr @Abc_AigAndLookup(ptr noundef readonly captures(none) %0, ptr noundef %1, ptr noundef %2) local_unnamed_addr #6 {
  %4 = load ptr, ptr %0, align 8
  %5 = getelementptr inbounds nuw i8, ptr %4, i64 256
  %6 = load ptr, ptr %5, align 8
  %7 = getelementptr inbounds nuw i8, ptr %6, i64 8
  %8 = load ptr, ptr %7, align 8
  %9 = icmp eq ptr %1, %2
  br i1 %9, label %.loopexit, label %10

10:                                               ; preds = %3
  %11 = ptrtoint ptr %2 to i64
  %12 = xor i64 %11, 1
  %13 = inttoptr i64 %12 to ptr
  %14 = icmp eq ptr %1, %13
  br i1 %14, label %15, label %19

15:                                               ; preds = %10
  %16 = ptrtoint ptr %8 to i64
  %17 = xor i64 %16, 1
  %18 = inttoptr i64 %17 to ptr
  br label %.loopexit

19:                                               ; preds = %10
  %20 = ptrtoint ptr %1 to i64
  %21 = and i64 %20, -2
  %22 = inttoptr i64 %21 to ptr
  %23 = icmp eq ptr %8, %22
  br i1 %23, label %24, label %30

24:                                               ; preds = %19
  %25 = icmp eq ptr %1, %8
  br i1 %25, label %.loopexit, label %26

26:                                               ; preds = %24
  %27 = ptrtoint ptr %8 to i64
  %28 = xor i64 %27, 1
  %29 = inttoptr i64 %28 to ptr
  br label %.loopexit

30:                                               ; preds = %19
  %31 = and i64 %11, -2
  %32 = inttoptr i64 %31 to ptr
  %33 = icmp eq ptr %8, %32
  br i1 %33, label %34, label %40

34:                                               ; preds = %30
  %35 = icmp eq ptr %2, %8
  br i1 %35, label %.loopexit, label %36

36:                                               ; preds = %34
  %37 = ptrtoint ptr %8 to i64
  %38 = xor i64 %37, 1
  %39 = inttoptr i64 %38 to ptr
  br label %.loopexit

40:                                               ; preds = %30
  %41 = getelementptr i8, ptr %22, i64 44
  %.val48 = load i32, ptr %41, align 4
  %42 = getelementptr i8, ptr %32, i64 44
  %.val = load i32, ptr %42, align 4
  %43 = icmp eq i32 %.val48, 0
  %44 = icmp eq i32 %.val, 0
  %or.cond = select i1 %43, i1 true, i1 %44
  br i1 %or.cond, label %.loopexit, label %45

45:                                               ; preds = %40
  %46 = getelementptr inbounds nuw i8, ptr %22, i64 16
  %47 = load i32, ptr %46, align 8
  %48 = getelementptr inbounds nuw i8, ptr %32, i64 16
  %49 = load i32, ptr %48, align 8
  %50 = icmp sgt i32 %47, %49
  %spec.select = select i1 %50, ptr %1, ptr %2
  %spec.select47 = select i1 %50, ptr %2, ptr %1
  %51 = getelementptr inbounds nuw i8, ptr %0, i64 24
  %52 = load i32, ptr %51, align 8
  %53 = ptrtoint ptr %spec.select47 to i64
  %54 = and i64 %53, -2
  %55 = inttoptr i64 %54 to ptr
  %56 = getelementptr inbounds nuw i8, ptr %55, i64 16
  %57 = load i32, ptr %56, align 8
  %58 = mul nsw i32 %57, 7937
  %59 = ptrtoint ptr %spec.select to i64
  %60 = and i64 %59, -2
  %61 = inttoptr i64 %60 to ptr
  %62 = getelementptr inbounds nuw i8, ptr %61, i64 16
  %63 = load i32, ptr %62, align 8
  %64 = mul nsw i32 %63, 2971
  %65 = trunc i64 %53 to i1
  %66 = select i1 %65, i32 911, i32 0
  %67 = trunc i64 %59 to i1
  %68 = select i1 %67, i32 353, i32 0
  %69 = xor i32 %64, %58
  %70 = xor i32 %69, %66
  %71 = xor i32 %70, %68
  %72 = urem i32 %71, %52
  %73 = getelementptr inbounds nuw i8, ptr %0, i64 16
  %74 = load ptr, ptr %73, align 8
  %75 = zext i32 %72 to i64
  %76 = getelementptr inbounds nuw ptr, ptr %74, i64 %75
  %.04355 = load ptr, ptr %76, align 8
  %.not56 = icmp eq ptr %.04355, null
  br i1 %.not56, label %.loopexit, label %.lr.ph

.lr.ph:                                           ; preds = %45, %103
  %.04357 = phi ptr [ %.043, %103 ], [ %.04355, %45 ]
  %.val.i = load ptr, ptr %.04357, align 8
  %77 = getelementptr i8, ptr %.04357, i64 32
  %.val2.i = load ptr, ptr %77, align 8
  %78 = getelementptr i8, ptr %.val.i, i64 32
  %.val.val.i = load ptr, ptr %78, align 8
  %.val2.val.i = load i32, ptr %.val2.i, align 4
  %79 = getelementptr i8, ptr %.val.val.i, i64 8
  %.val.val.val.i = load ptr, ptr %79, align 8
  %80 = sext i32 %.val2.val.i to i64
  %81 = getelementptr inbounds ptr, ptr %.val.val.val.i, i64 %80
  %82 = load ptr, ptr %81, align 8
  %83 = getelementptr i8, ptr %.04357, i64 20
  %.val3.i = load i32, ptr %83, align 4
  %84 = lshr i32 %.val3.i, 10
  %85 = and i32 %84, 1
  %86 = ptrtoint ptr %82 to i64
  %87 = zext nneg i32 %85 to i64
  %88 = xor i64 %87, %86
  %89 = inttoptr i64 %88 to ptr
  %90 = icmp eq ptr %spec.select47, %89
  br i1 %90, label %91, label %103

91:                                               ; preds = %.lr.ph
  %92 = getelementptr i8, ptr %.val2.i, i64 4
  %.val2.val.i52 = load i32, ptr %92, align 4
  %93 = sext i32 %.val2.val.i52 to i64
  %94 = getelementptr inbounds ptr, ptr %.val.val.val.i, i64 %93
  %95 = load ptr, ptr %94, align 8
  %96 = lshr i32 %.val3.i, 11
  %97 = and i32 %96, 1
  %98 = ptrtoint ptr %95 to i64
  %99 = zext nneg i32 %97 to i64
  %100 = xor i64 %98, %99
  %101 = inttoptr i64 %100 to ptr
  %102 = icmp eq ptr %spec.select, %101
  br i1 %102, label %.loopexit, label %103

103:                                              ; preds = %.lr.ph, %91
  %104 = getelementptr inbounds nuw i8, ptr %.04357, i64 8
  %.043 = load ptr, ptr %104, align 8
  %.not = icmp eq ptr %.043, null
  br i1 %.not, label %.loopexit, label %.lr.ph, !llvm.loop !22

.loopexit:                                        ; preds = %91, %103, %45, %40, %34, %24, %3, %36, %26, %15
  %.0 = phi ptr [ %18, %15 ], [ %29, %26 ], [ %39, %36 ], [ %1, %3 ], [ %2, %24 ], [ %1, %34 ], [ null, %40 ], [ null, %45 ], [ %.04357, %91 ], [ null, %103 ]
  ret ptr %.0
}